target datalayout = "e-m:e-p270:32:32-p271:32:32-p272:64:64-i64:64-i128:128-f80:128-n8:16:32:64-S128"
target triple = "x86_64-pc-linux-gnu"

%"struct.std::atomic" = type { %"struct.std::__atomic_base" }
%"struct.std::__atomic_base" = type { i64 }
%"struct.std::atomic.14" = type { double }
%"class.grpc_core::channelz::PerCpuCallCountingHelper" = type { %"class.grpc_core::PerCpu" }
%"class.grpc_core::PerCpu" = type { [8 x i8], i64, %"class.std::unique_ptr" }
%"class.std::unique_ptr" = type { %"struct.std::__uniq_ptr_data" }
%"struct.std::__uniq_ptr_data" = type { %"class.std::__uniq_ptr_impl" }
%"class.std::__uniq_ptr_impl" = type { %"class.std::tuple" }
%"class.std::tuple" = type { %"struct.std::_Tuple_impl" }
%"struct.std::_Tuple_impl" = type { %"struct.std::_Head_base.19" }
%"struct.std::_Head_base.19" = type { ptr }
%"struct.grpc_core::channelz::PerCpuCallCountingHelper::PerCpuData" = type { %"struct.std::atomic", %"struct.std::atomic", %"struct.std::atomic", %"struct.std::atomic.14", [32 x i8] }

; Function Attrs: mustprogress nounwind uwtable
define linkonce_odr void @_ZNSt6atomicIdE5storeEdSt12memory_order(ptr noundef nonnull align 8 dereferenceable(8) %0, double noundef %1, i32 noundef %2) #5 comdat align 2 {
  %4 = alloca ptr, align 8
  %5 = alloca double, align 8
  %6 = alloca i32, align 4
  store ptr %0, ptr %4, align 8, !tbaa !39
  store double %1, ptr %5, align 8, !tbaa !41
  store i32 %2, ptr %6, align 4, !tbaa !37
  %7 = load ptr, ptr %4, align 8
  %8 = getelementptr inbounds nuw %"struct.std::atomic.14", ptr %7, i32 0, i32 0
  %9 = load i32, ptr %6, align 4, !tbaa !37
  switch i32 %9, label %10 [
    i32 3, label %12
    i32 5, label %14
  ]

10:                                               ; preds = %3
  %11 = load i64, ptr %5, align 8
  store atomic i64 %11, ptr %8 monotonic, align 8
  br label %16

12:                                               ; preds = %3
  %13 = load i64, ptr %5, align 8
  store atomic i64 %13, ptr %8 release, align 8
  br label %16

14:                                               ; preds = %3
  %15 = load i64, ptr %5, align 8
  store atomic i64 %15, ptr %8 seq_cst, align 8
  br label %16

16:                                               ; preds = %14, %12, %10
  ret void
}

; Function Attrs: alwaysinline mustprogress nounwind uwtable
define linkonce_odr noundef i64 @_ZNSt13__atomic_baseIlE9fetch_addElSt12memory_order(ptr noundef nonnull align 8 dereferenceable(8) %0, i64 noundef %1, i32 noundef %2) #10 comdat align 2 {
  %4 = alloca ptr, align 8
  %5 = alloca i64, align 8
  %6 = alloca i32, align 4
  %7 = alloca i64, align 8
  %8 = alloca i64, align 8
  store ptr %0, ptr %4, align 8, !tbaa !35
  store i64 %1, ptr %5, align 8, !tbaa !29
  store i32 %2, ptr %6, align 4, !tbaa !37
  %9 = load ptr, ptr %4, align 8
  %10 = getelementptr inbounds nuw %"struct.std::__atomic_base", ptr %9, i32 0, i32 0
  %11 = load i32, ptr %6, align 4, !tbaa !37
  %12 = load i64, ptr %5, align 8, !tbaa !29
  store i64 %12, ptr %7, align 8, !tbaa !29
  switch i32 %11, label %13 [
    i32 1, label %16
    i32 2, label %16
    i32 3, label %19
    i32 4, label %22
    i32 5, label %25
  ]

13:                                               ; preds = %3
  %14 = load i64, ptr %7, align 8
  %15 = atomicrmw add ptr %10, i64 %14 monotonic, align 8
  store i64 %15, ptr %8, align 8
  br label %28

16:                                               ; preds = %3, %3
  %17 = load i64, ptr %7, align 8
  %18 = atomicrmw add ptr %10, i64 %17 acquire, align 8
  store i64 %18, ptr %8, align 8
  br label %28

19:                                               ; preds = %3
  %20 = load i64, ptr %7, align 8
  %21 = atomicrmw add ptr %10, i64 %20 release, align 8
  store i64 %21, ptr %8, align 8
  br label %28

22:                                               ; preds = %3
  %23 = load i64, ptr %7, align 8
  %24 = atomicrmw add ptr %10, i64 %23 acq_rel, align 8
  store i64 %24, ptr %8, align 8
  br label %28

25:                                               ; preds = %3
  %26 = load i64, ptr %7, align 8
  %27 = atomicrmw add ptr %10, i64 %26 seq_cst, align 8
  store i64 %27, ptr %8, align 8
  br label %28

28:                                               ; preds = %25, %22, %19, %16, %13
  %29 = load i64, ptr %8, align 8, !tbaa !29
  ret i64 %29
}

; Function Attrs: mustprogress uwtable
define void @_ZN9grpc_core8channelz24PerCpuCallCountingHelper17RecordCallStartedEv(ptr noundef nonnull align 8 dereferenceable(24) %0) #4 align 2 {
  %2 = alloca ptr, align 8
  %3 = alloca ptr, align 8
  store ptr %0, ptr %2, align 8, !tbaa !61
  %4 = load ptr, ptr %2, align 8
  call void @llvm.lifetime.start.p0(i64 8, ptr %3) #3
  %5 = getelementptr inbounds nuw %"class.grpc_core::channelz::PerCpuCallCountingHelper", ptr %4, i32 0, i32 0
  %6 = call noundef nonnull align 64 dereferenceable(32) ptr @_ZN9grpc_core6PerCpuINS_8channelz24PerCpuCallCountingHelper10PerCpuDataEE8this_cpuEv(ptr noundef nonnull align 8 dereferenceable(24) %5)
  store ptr %6, ptr %3, align 8, !tbaa !63
  %7 = load ptr, ptr %3, align 8, !tbaa !63
  %8 = getelementptr inbounds nuw %"struct.grpc_core::channelz::PerCpuCallCountingHelper::PerCpuData", ptr %7, i32 0, i32 0
  %9 = call noundef i64 @_ZNSt13__atomic_baseIlE9fetch_addElSt12memory_order(ptr noundef nonnull align 8 dereferenceable(8) %8, i64 noundef 1, i32 noundef 0) #3
  %10 = load ptr, ptr %3, align 8, !tbaa !63
  %11 = getelementptr inbounds nuw %"struct.grpc_core::channelz::PerCpuCallCountingHelper::PerCpuData", ptr %10, i32 0, i32 3
  %12 = call noundef double @_Z21gpr_get_cycle_counterv()
  call void @_ZNSt6atomicIdE5storeEdSt12memory_order(ptr noundef nonnull align 8 dereferenceable(8) %11, double noundef %12, i32 noundef 0) #3
  call void @llvm.lifetime.end.p0(i64 8, ptr %3) #3
  ret void
}