; Function Attrs: mustprogress uwtable
define void @_ZN9grpc_core8channelz24PerCpuCallCountingHelper17RecordCallStartedEv(ptr noundef nonnull align 8 dereferenceable(24) %0) local_unnamed_addr #3 align 2 {
  %2 = tail call noundef nonnull align 64 dereferenceable(32) ptr @_ZN9grpc_core6PerCpuINS_8channelz24PerCpuCallCountingHelper10PerCpuDataEE8this_cpuEv(ptr noundef nonnull align 8 dereferenceable(24) %0)
  %3 = atomicrmw add ptr %2, i64 1 monotonic, align 8
  %4 = getelementptr inbounds nuw i8, ptr %2, i64 24
  %5 = tail call noundef double @_Z21gpr_get_cycle_counterv()
  %6 = bitcast double %5 to i64
  store atomic i64 %6, ptr %4 monotonic, align 8
  ret void
}